
TEST.ELF:     file format elf32-littlearm


Disassembly of section .text:

00030000 <_start>:
   30000:	e3a0b000 	mov	fp, #0, 0
   30004:	e3a0e000 	mov	lr, #0, 0
   30008:	e59f1010 	ldr	r1, [pc, #16]	; 30020 <_start+0x20>
   3000c:	e08f1001 	add	r1, pc, r1
   30010:	e1a0000d 	mov	r0, sp
   30014:	e3c0c00f 	bic	ip, r0, #15, 0
   30018:	e1a0d00c 	mov	sp, ip
   3001c:	eb000000 	bl	30024 <_start_c>
   30020:	fffcffec 	.word	0xfffcffec

00030024 <_start_c>:
   30024:	e1a02000 	mov	r2, r0
   30028:	e59f0024 	ldr	r0, [pc, #36]	; 30054 <_start_c+0x30>
   3002c:	e52de004 	push	{lr}		; (str lr, [sp, #-4]!)
   30030:	e3a0c000 	mov	ip, #0, 0
   30034:	e24dd00c 	sub	sp, sp, #12, 0
   30038:	e4921004 	ldr	r1, [r2], #4
   3003c:	e59f3014 	ldr	r3, [pc, #20]	; 30058 <_start_c+0x34>
   30040:	e88d1001 	stm	sp, {r0, ip}
   30044:	e59f0010 	ldr	r0, [pc, #16]	; 3005c <_start_c+0x38>
   30048:	eb0000d7 	bl	303ac <__libc_start_main>
   3004c:	e28dd00c 	add	sp, sp, #12, 0
   30050:	e49df004 	pop	{pc}		; (ldr pc, [sp], #4)
   30054:	00030d70 	.word	0x00030d70
   30058:	00030d64 	.word	0x00030d64
   3005c:	0003013c 	.word	0x0003013c

00030060 <deregister_tm_clones>:
   30060:	e59f0018 	ldr	r0, [pc, #24]	; 30080 <deregister_tm_clones+0x20>
   30064:	e59f3018 	ldr	r3, [pc, #24]	; 30084 <deregister_tm_clones+0x24>
   30068:	e1530000 	cmp	r3, r0
   3006c:	012fff1e 	bxeq	lr
   30070:	e59f3010 	ldr	r3, [pc, #16]	; 30088 <deregister_tm_clones+0x28>
   30074:	e3530000 	cmp	r3, #0, 0
   30078:	012fff1e 	bxeq	lr
   3007c:	e12fff13 	bx	r3
   30080:	00030edc 	.word	0x00030edc
   30084:	00030edc 	.word	0x00030edc
   30088:	00000000 	.word	0x00000000

0003008c <register_tm_clones>:
   3008c:	e59f0024 	ldr	r0, [pc, #36]	; 300b8 <register_tm_clones+0x2c>
   30090:	e59f3024 	ldr	r3, [pc, #36]	; 300bc <register_tm_clones+0x30>
   30094:	e0433000 	sub	r3, r3, r0
   30098:	e1a01fa3 	lsr	r1, r3, #31
   3009c:	e0811143 	add	r1, r1, r3, asr #2
   300a0:	e1b010c1 	asrs	r1, r1, #1
   300a4:	012fff1e 	bxeq	lr
   300a8:	e59f3010 	ldr	r3, [pc, #16]	; 300c0 <register_tm_clones+0x34>
   300ac:	e3530000 	cmp	r3, #0, 0
   300b0:	012fff1e 	bxeq	lr
   300b4:	e12fff13 	bx	r3
   300b8:	00030edc 	.word	0x00030edc
   300bc:	00030edc 	.word	0x00030edc
   300c0:	00000000 	.word	0x00000000

000300c4 <__do_global_dtors_aux>:
   300c4:	e92d4010 	push	{r4, lr}
   300c8:	e59f402c 	ldr	r4, [pc, #44]	; 300fc <__do_global_dtors_aux+0x38>
   300cc:	e5d43000 	ldrb	r3, [r4]
   300d0:	e3530000 	cmp	r3, #0, 0
   300d4:	18bd8010 	popne	{r4, pc}
   300d8:	ebffffe0 	bl	30060 <deregister_tm_clones>
   300dc:	e59f301c 	ldr	r3, [pc, #28]	; 30100 <__do_global_dtors_aux+0x3c>
   300e0:	e3530000 	cmp	r3, #0, 0
   300e4:	0a000001 	beq	300f0 <__do_global_dtors_aux+0x2c>
   300e8:	e59f0014 	ldr	r0, [pc, #20]	; 30104 <__do_global_dtors_aux+0x40>
   300ec:	e1a00000 	nop			; (mov r0, r0)
   300f0:	e3a03001 	mov	r3, #1, 0
   300f4:	e5c43000 	strb	r3, [r4]
   300f8:	e8bd8010 	pop	{r4, pc}
   300fc:	00030ee4 	.word	0x00030ee4
   30100:	00000000 	.word	0x00000000
   30104:	00030ec0 	.word	0x00030ec0

00030108 <frame_dummy>:
   30108:	e59f3020 	ldr	r3, [pc, #32]	; 30130 <frame_dummy+0x28>
   3010c:	e3530000 	cmp	r3, #0, 0
   30110:	0a000005 	beq	3012c <frame_dummy+0x24>
   30114:	e92d4010 	push	{r4, lr}
   30118:	e59f1014 	ldr	r1, [pc, #20]	; 30134 <frame_dummy+0x2c>
   3011c:	e59f0014 	ldr	r0, [pc, #20]	; 30138 <frame_dummy+0x30>
   30120:	e1a00000 	nop			; (mov r0, r0)
   30124:	e8bd4010 	pop	{r4, lr}
   30128:	eaffffd7 	b	3008c <register_tm_clones>
   3012c:	eaffffd6 	b	3008c <register_tm_clones>
   30130:	00000000 	.word	0x00000000
   30134:	00030ee8 	.word	0x00030ee8
   30138:	00030ec0 	.word	0x00030ec0

0003013c <main>:
   3013c:	e92d4800 	push	{fp, lr}
   30140:	e28db004 	add	fp, sp, #4, 0
   30144:	e3a02011 	mov	r2, #17, 0
   30148:	e59f1010 	ldr	r1, [pc, #16]	; 30160 <main+0x24>
   3014c:	e3a00001 	mov	r0, #1, 0
   30150:	eb0000f9 	bl	3053c <write>
   30154:	e3a03000 	mov	r3, #0, 0
   30158:	e1a00003 	mov	r0, r3
   3015c:	e8bd8800 	pop	{fp, pc}
   30160:	00030e0c 	.word	0x00030e0c

00030164 <dummy>:
   30164:	e12fff1e 	bx	lr

00030168 <__init_ssp>:
   30168:	e12fff1e 	bx	lr

0003016c <__init_libc>:
   3016c:	e92d41f0 	push	{r4, r5, r6, r7, r8, lr}
   30170:	e24dd0b0 	sub	sp, sp, #176, 0	; 0xb0
   30174:	e28d6018 	add	r6, sp, #24, 0
   30178:	e1a04000 	mov	r4, r0
   3017c:	e3a02098 	mov	r2, #152, 0	; 0x98
   30180:	e1a05001 	mov	r5, r1
   30184:	e1a00006 	mov	r0, r6
   30188:	e3a01000 	mov	r1, #0, 0
   3018c:	eb0000a9 	bl	30438 <memset>
   30190:	e59f1190 	ldr	r1, [pc, #400]	; 30328 <__init_libc+0x1bc>
   30194:	e3a03000 	mov	r3, #0, 0
   30198:	e2442004 	sub	r2, r4, #4, 0
   3019c:	e5814000 	str	r4, [r1]
   301a0:	e5b21004 	ldr	r1, [r2, #4]!
   301a4:	e2833001 	add	r3, r3, #1, 0
   301a8:	e3510000 	cmp	r1, #0, 0
   301ac:	1afffffb 	bne	301a0 <__init_libc+0x34>
   301b0:	e59f8174 	ldr	r8, [pc, #372]	; 3032c <__init_libc+0x1c0>
   301b4:	e0840103 	add	r0, r4, r3, lsl #2
   301b8:	e5880008 	str	r0, [r8, #8]
   301bc:	ea000003 	b	301d0 <__init_libc+0x64>
   301c0:	e3530025 	cmp	r3, #37, 0	; 0x25
   301c4:	95903004 	ldrls	r3, [r0, #4]
   301c8:	e2800008 	add	r0, r0, #8, 0
   301cc:	95023098 	strls	r3, [r2, #-152]	; 0xffffff68
   301d0:	e5903000 	ldr	r3, [r0]
   301d4:	e28d20b0 	add	r2, sp, #176, 0	; 0xb0
   301d8:	e3530000 	cmp	r3, #0, 0
   301dc:	e0822103 	add	r2, r2, r3, lsl #2
   301e0:	1afffff6 	bne	301c0 <__init_libc+0x54>
   301e4:	e59f3144 	ldr	r3, [pc, #324]	; 30330 <__init_libc+0x1c4>
   301e8:	e59d2058 	ldr	r2, [sp, #88]	; 0x58
   301ec:	e5832000 	str	r2, [r3]
   301f0:	e59d3098 	ldr	r3, [sp, #152]	; 0x98
   301f4:	e3530000 	cmp	r3, #0, 0
   301f8:	159f2134 	ldrne	r2, [pc, #308]	; 30334 <__init_libc+0x1c8>
   301fc:	15823000 	strne	r3, [r2]
   30200:	e59d3030 	ldr	r3, [sp, #48]	; 0x30
   30204:	e3550000 	cmp	r5, #0, 0
   30208:	e588301c 	str	r3, [r8, #28]
   3020c:	0a000005 	beq	30228 <__init_libc+0xbc>
   30210:	e59f3120 	ldr	r3, [pc, #288]	; 30338 <__init_libc+0x1cc>
   30214:	e59f2120 	ldr	r2, [pc, #288]	; 3033c <__init_libc+0x1d0>
   30218:	e1a01005 	mov	r1, r5
   3021c:	e5835000 	str	r5, [r3]
   30220:	e5825000 	str	r5, [r2]
   30224:	ea000007 	b	30248 <__init_libc+0xdc>
   30228:	e59d3094 	ldr	r3, [sp, #148]	; 0x94
   3022c:	e59f110c 	ldr	r1, [pc, #268]	; 30340 <__init_libc+0x1d4>
   30230:	e3530000 	cmp	r3, #0, 0
   30234:	11a05003 	movne	r5, r3
   30238:	01a05001 	moveq	r5, r1
   3023c:	eafffff3 	b	30210 <__init_libc+0xa4>
   30240:	e353002f 	cmp	r3, #47, 0	; 0x2f
   30244:	05821000 	streq	r1, [r2]
   30248:	e4d13001 	ldrb	r3, [r1], #1
   3024c:	e3530000 	cmp	r3, #0, 0
   30250:	1afffffa 	bne	30240 <__init_libc+0xd4>
   30254:	e1a00006 	mov	r0, r6
   30258:	eb000108 	bl	30680 <__init_tls>
   3025c:	e59d007c 	ldr	r0, [sp, #124]	; 0x7c
   30260:	ebffffc0 	bl	30168 <__init_ssp>
   30264:	e59d2044 	ldr	r2, [sp, #68]	; 0x44
   30268:	e59d3048 	ldr	r3, [sp, #72]	; 0x48
   3026c:	e1520003 	cmp	r2, r3
   30270:	0a000010 	beq	302b8 <__init_libc+0x14c>
   30274:	e3a03001 	mov	r3, #1, 0
   30278:	e3a02000 	mov	r2, #0, 0
   3027c:	e58d3008 	str	r3, [sp, #8]
   30280:	e3a03002 	mov	r3, #2, 0
   30284:	e3a070a8 	mov	r7, #168, 0	; 0xa8
   30288:	e1a0000d 	mov	r0, sp
   3028c:	e3a01003 	mov	r1, #3, 0
   30290:	e58d2000 	str	r2, [sp]
   30294:	e58d3010 	str	r3, [sp, #16]
   30298:	e58d2004 	str	r2, [sp, #4]
   3029c:	e58d200c 	str	r2, [sp, #12]
   302a0:	e58d2014 	str	r2, [sp, #20]
   302a4:	ef000000 	svc	0x00000000
   302a8:	e1500002 	cmp	r0, r2
   302ac:	ba000009 	blt	302d8 <__init_libc+0x16c>
   302b0:	e1a0300d 	mov	r3, sp
   302b4:	ea00000c 	b	302ec <__init_libc+0x180>
   302b8:	e59d204c 	ldr	r2, [sp, #76]	; 0x4c
   302bc:	e59d3050 	ldr	r3, [sp, #80]	; 0x50
   302c0:	e1520003 	cmp	r2, r3
   302c4:	1affffea 	bne	30274 <__init_libc+0x108>
   302c8:	e59d3074 	ldr	r3, [sp, #116]	; 0x74
   302cc:	e3530000 	cmp	r3, #0, 0
   302d0:	1affffe7 	bne	30274 <__init_libc+0x108>
   302d4:	ea000011 	b	30320 <__init_libc+0x1b4>
   302d8:	e7f000f0 	.word	0xe7f000f0
   302dc:	eafffff3 	b	302b0 <__init_libc+0x144>
   302e0:	e2833008 	add	r3, r3, #8, 0
   302e4:	e1530006 	cmp	r3, r6
   302e8:	0a00000a 	beq	30318 <__init_libc+0x1ac>
   302ec:	e1d320b6 	ldrh	r2, [r3, #6]
   302f0:	e59f004c 	ldr	r0, [pc, #76]	; 30344 <__init_libc+0x1d8>
   302f4:	e3120020 	tst	r2, #32, 0
   302f8:	e59f1048 	ldr	r1, [pc, #72]	; 30348 <__init_libc+0x1dc>
   302fc:	e3a07005 	mov	r7, #5, 0
   30300:	0afffff6 	beq	302e0 <__init_libc+0x174>
   30304:	ef000000 	svc	0x00000000
   30308:	e3500000 	cmp	r0, #0, 0
   3030c:	aafffff3 	bge	302e0 <__init_libc+0x174>
   30310:	e7f000f0 	.word	0xe7f000f0
   30314:	eafffff1 	b	302e0 <__init_libc+0x174>
   30318:	e3a03001 	mov	r3, #1, 0
   3031c:	e5c83002 	strb	r3, [r8, #2]
   30320:	e28dd0b0 	add	sp, sp, #176, 0	; 0xb0
   30324:	e8bd81f0 	pop	{r4, r5, r6, r7, r8, pc}
   30328:	00030f48 	.word	0x00030f48
   3032c:	00030f10 	.word	0x00030f10
   30330:	00030f0c 	.word	0x00030f0c
   30334:	00030f00 	.word	0x00030f00
   30338:	00030f04 	.word	0x00030f04
   3033c:	00030f08 	.word	0x00030f08
   30340:	00030e20 	.word	0x00030e20
   30344:	00030e24 	.word	0x00030e24
   30348:	00020002 	.word	0x00020002

0003034c <__libc_start_init>:
   3034c:	e92d4070 	push	{r4, r5, r6, lr}
   30350:	eb000283 	bl	30d64 <_init>
   30354:	e59f4018 	ldr	r4, [pc, #24]	; 30374 <__libc_start_init+0x28>
   30358:	e59f5018 	ldr	r5, [pc, #24]	; 30378 <__libc_start_init+0x2c>
   3035c:	ea000001 	b	30368 <__libc_start_init+0x1c>
   30360:	e4943004 	ldr	r3, [r4], #4
   30364:	e12fff33 	blx	r3
   30368:	e1540005 	cmp	r4, r5
   3036c:	3afffffb 	bcc	30360 <__libc_start_init+0x14>
   30370:	e8bd8070 	pop	{r4, r5, r6, pc}
	...

0003037c <libc_start_main_stage2>:
   3037c:	e92d41f0 	push	{r4, r5, r6, r7, r8, lr}
   30380:	e2817001 	add	r7, r1, #1, 0
   30384:	e1a04001 	mov	r4, r1
   30388:	e1a05002 	mov	r5, r2
   3038c:	e0827107 	add	r7, r2, r7, lsl #2
   30390:	e1a06000 	mov	r6, r0
   30394:	ebffffec 	bl	3034c <__libc_start_init>
   30398:	e1a02007 	mov	r2, r7
   3039c:	e1a01005 	mov	r1, r5
   303a0:	e1a00004 	mov	r0, r4
   303a4:	e12fff36 	blx	r6
   303a8:	eb00001b 	bl	3041c <exit>

000303ac <__libc_start_main>:
   303ac:	e2813001 	add	r3, r1, #1, 0
   303b0:	e92d4070 	push	{r4, r5, r6, lr}
   303b4:	e1a05001 	mov	r5, r1
   303b8:	e1a04002 	mov	r4, r2
   303bc:	e5921000 	ldr	r1, [r2]
   303c0:	e1a06000 	mov	r6, r0
   303c4:	e0820103 	add	r0, r2, r3, lsl #2
   303c8:	ebffff67 	bl	3016c <__init_libc>
   303cc:	e59f3010 	ldr	r3, [pc, #16]	; 303e4 <__libc_start_main+0x38>
   303d0:	e1a02004 	mov	r2, r4
   303d4:	e1a01005 	mov	r1, r5
   303d8:	e1a00006 	mov	r0, r6
   303dc:	e8bd4070 	pop	{r4, r5, r6, lr}
   303e0:	e12fff13 	bx	r3
   303e4:	0003037c 	.word	0x0003037c

000303e8 <__funcs_on_exit>:
   303e8:	e12fff1e 	bx	lr

000303ec <__libc_exit_fini>:
   303ec:	e92d4070 	push	{r4, r5, r6, lr}
   303f0:	e59f401c 	ldr	r4, [pc, #28]	; 30414 <__libc_exit_fini+0x28>
   303f4:	e59f501c 	ldr	r5, [pc, #28]	; 30418 <__libc_exit_fini+0x2c>
   303f8:	ea000001 	b	30404 <__libc_exit_fini+0x18>
   303fc:	e5343004 	ldr	r3, [r4, #-4]!
   30400:	e12fff33 	blx	r3
   30404:	e1540005 	cmp	r4, r5
   30408:	8afffffb 	bhi	303fc <__libc_exit_fini+0x10>
   3040c:	e8bd4070 	pop	{r4, r5, r6, lr}
   30410:	ea000256 	b	30d70 <_fini>
	...

0003041c <exit>:
   3041c:	e92d4010 	push	{r4, lr}
   30420:	e1a04000 	mov	r4, r0
   30424:	ebffffef 	bl	303e8 <__funcs_on_exit>
   30428:	ebffffef 	bl	303ec <__libc_exit_fini>
   3042c:	ebffffed 	bl	303e8 <__funcs_on_exit>
   30430:	e1a00004 	mov	r0, r4
   30434:	eb0000f7 	bl	30818 <_Exit>

00030438 <memset>:
   30438:	e3520000 	cmp	r2, #0, 0
   3043c:	012fff1e 	bxeq	lr
   30440:	e20110ff 	and	r1, r1, #255, 0	; 0xff
   30444:	e1a03000 	mov	r3, r0
   30448:	e3520002 	cmp	r2, #2, 0
   3044c:	e6c31002 	strb	r1, [r3], r2
   30450:	e5431001 	strb	r1, [r3, #-1]
   30454:	912fff1e 	bxls	lr
   30458:	e3520006 	cmp	r2, #6, 0
   3045c:	e5c01001 	strb	r1, [r0, #1]
   30460:	e5c01002 	strb	r1, [r0, #2]
   30464:	e5431002 	strb	r1, [r3, #-2]
   30468:	e5431003 	strb	r1, [r3, #-3]
   3046c:	912fff1e 	bxls	lr
   30470:	e3520008 	cmp	r2, #8, 0
   30474:	e5c01003 	strb	r1, [r0, #3]
   30478:	e5431004 	strb	r1, [r3, #-4]
   3047c:	912fff1e 	bxls	lr
   30480:	e260c000 	rsb	ip, r0, #0, 0
   30484:	e20cc003 	and	ip, ip, #3, 0
   30488:	e042200c 	sub	r2, r2, ip
   3048c:	e0811401 	add	r1, r1, r1, lsl #8
   30490:	e3c22003 	bic	r2, r2, #3, 0
   30494:	e0811801 	add	r1, r1, r1, lsl #16
   30498:	e080300c 	add	r3, r0, ip
   3049c:	e780100c 	str	r1, [r0, ip]
   304a0:	e3520008 	cmp	r2, #8, 0
   304a4:	e083c002 	add	ip, r3, r2
   304a8:	e50c1004 	str	r1, [ip, #-4]
   304ac:	912fff1e 	bxls	lr
   304b0:	e3520018 	cmp	r2, #24, 0
   304b4:	e5831004 	str	r1, [r3, #4]
   304b8:	e5831008 	str	r1, [r3, #8]
   304bc:	e50c100c 	str	r1, [ip, #-12]
   304c0:	e50c1008 	str	r1, [ip, #-8]
   304c4:	912fff1e 	bxls	lr
   304c8:	e583100c 	str	r1, [r3, #12]
   304cc:	e5831010 	str	r1, [r3, #16]
   304d0:	e5831014 	str	r1, [r3, #20]
   304d4:	e5831018 	str	r1, [r3, #24]
   304d8:	e50c101c 	str	r1, [ip, #-28]	; 0xffffffe4
   304dc:	e50c1018 	str	r1, [ip, #-24]	; 0xffffffe8
   304e0:	e50c1014 	str	r1, [ip, #-20]	; 0xffffffec
   304e4:	e50c1010 	str	r1, [ip, #-16]
   304e8:	e203c004 	and	ip, r3, #4, 0
   304ec:	e28cc018 	add	ip, ip, #24, 0
   304f0:	e083300c 	add	r3, r3, ip
   304f4:	e042200c 	sub	r2, r2, ip
   304f8:	e3c2201f 	bic	r2, r2, #31, 0
   304fc:	e2833020 	add	r3, r3, #32, 0
   30500:	e0822003 	add	r2, r2, r3
   30504:	e1a0c001 	mov	ip, r1
   30508:	ea000008 	b	30530 <memset+0xf8>
   3050c:	e503c020 	str	ip, [r3, #-32]	; 0xffffffe0
   30510:	e503101c 	str	r1, [r3, #-28]	; 0xffffffe4
   30514:	e503c018 	str	ip, [r3, #-24]	; 0xffffffe8
   30518:	e5031014 	str	r1, [r3, #-20]	; 0xffffffec
   3051c:	e503c010 	str	ip, [r3, #-16]
   30520:	e503100c 	str	r1, [r3, #-12]
   30524:	e503c008 	str	ip, [r3, #-8]
   30528:	e5031004 	str	r1, [r3, #-4]
   3052c:	e2833020 	add	r3, r3, #32, 0
   30530:	e1520003 	cmp	r2, r3
   30534:	1afffff4 	bne	3050c <memset+0xd4>
   30538:	e12fff1e 	bx	lr

0003053c <write>:
   3053c:	e52de004 	push	{lr}		; (str lr, [sp, #-4]!)
   30540:	e3a0c000 	mov	ip, #0, 0
   30544:	e24dd014 	sub	sp, sp, #20, 0
   30548:	e1a03002 	mov	r3, r2
   3054c:	e58dc008 	str	ip, [sp, #8]
   30550:	e1a02001 	mov	r2, r1
   30554:	e58dc004 	str	ip, [sp, #4]
   30558:	e1a01000 	mov	r1, r0
   3055c:	e58dc000 	str	ip, [sp]
   30560:	e3a00004 	mov	r0, #4, 0
   30564:	eb000188 	bl	30b8c <__syscall_cp>
   30568:	e28dd014 	add	sp, sp, #20, 0
   3056c:	e49de004 	pop	{lr}		; (ldr lr, [sp], #4)
   30570:	ea0000b0 	b	30838 <__syscall_ret>

00030574 <__init_tp>:
   30574:	e92d40b0 	push	{r4, r5, r7, lr}
   30578:	e1a04000 	mov	r4, r0
   3057c:	e5844000 	str	r4, [r4]
   30580:	e2800070 	add	r0, r0, #112, 0	; 0x70
   30584:	eb000181 	bl	30b90 <__set_thread_area>
   30588:	e3500000 	cmp	r0, #0, 0
   3058c:	ba000013 	blt	305e0 <__init_tp+0x6c>
   30590:	059f3050 	ldreq	r3, [pc, #80]	; 305e8 <__init_tp+0x74>
   30594:	03a02001 	moveq	r2, #1, 0
   30598:	05c32000 	strbeq	r2, [r3]
   3059c:	e3a03002 	mov	r3, #2, 0
   305a0:	e59f0044 	ldr	r0, [pc, #68]	; 305ec <__init_tp+0x78>
   305a4:	e3a07c01 	mov	r7, #256	; 0x100
   305a8:	e5843018 	str	r3, [r4, #24]
   305ac:	ef000000 	svc	0x00000000
   305b0:	e59f3038 	ldr	r3, [pc, #56]	; 305f0 <__init_tp+0x7c>
   305b4:	e59f1038 	ldr	r1, [pc, #56]	; 305f4 <__init_tp+0x80>
   305b8:	e5933000 	ldr	r3, [r3]
   305bc:	e2842044 	add	r2, r4, #68, 0	; 0x44
   305c0:	e5840010 	str	r0, [r4, #16]
   305c4:	e5841058 	str	r1, [r4, #88]	; 0x58
   305c8:	e3a00000 	mov	r0, #0, 0
   305cc:	e5842044 	str	r2, [r4, #68]	; 0x44
   305d0:	e584300c 	str	r3, [r4, #12]
   305d4:	e5844004 	str	r4, [r4, #4]
   305d8:	e5844008 	str	r4, [r4, #8]
   305dc:	e8bd80b0 	pop	{r4, r5, r7, pc}
   305e0:	e3e00000 	mvn	r0, #0, 0
   305e4:	e8bd80b0 	pop	{r4, r5, r7, pc}
   305e8:	00030f10 	.word	0x00030f10
   305ec:	00031018 	.word	0x00031018
   305f0:	00030f00 	.word	0x00030f00
   305f4:	00030f30 	.word	0x00030f30

000305f8 <__copy_tls>:
   305f8:	e92d4ff8 	push	{r3, r4, r5, r6, r7, r8, r9, sl, fp, lr}
   305fc:	e1a08000 	mov	r8, r0
   30600:	e59f9074 	ldr	r9, [pc, #116]	; 3067c <__copy_tls+0x84>
   30604:	e5997010 	ldr	r7, [r9, #16]
   30608:	e5993018 	ldr	r3, [r9, #24]
   3060c:	e5996014 	ldr	r6, [r9, #20]
   30610:	e2477004 	sub	r7, r7, #4, 0
   30614:	e0477103 	sub	r7, r7, r3, lsl #2
   30618:	e3e0306f 	mvn	r3, #111, 0	; 0x6f
   3061c:	e2466001 	sub	r6, r6, #1, 0
   30620:	e0433000 	sub	r3, r3, r0
   30624:	e0066003 	and	r6, r6, r3
   30628:	e080a007 	add	sl, r0, r7
   3062c:	e0806006 	add	r6, r0, r6
   30630:	e599400c 	ldr	r4, [r9, #12]
   30634:	e286b070 	add	fp, r6, #112, 0	; 0x70
   30638:	e1a0500a 	mov	r5, sl
   3063c:	ea000007 	b	30660 <__copy_tls+0x68>
   30640:	e5943014 	ldr	r3, [r4, #20]
   30644:	e08b3003 	add	r3, fp, r3
   30648:	e5a53004 	str	r3, [r5, #4]!
   3064c:	e5940014 	ldr	r0, [r4, #20]
   30650:	e9940006 	ldmib	r4, {r1, r2}
   30654:	e08b0000 	add	r0, fp, r0
   30658:	eb000080 	bl	30860 <memcpy>
   3065c:	e5944000 	ldr	r4, [r4]
   30660:	e3540000 	cmp	r4, #0, 0
   30664:	1afffff5 	bne	30640 <__copy_tls+0x48>
   30668:	e5993018 	ldr	r3, [r9, #24]
   3066c:	e7883007 	str	r3, [r8, r7]
   30670:	e1a00006 	mov	r0, r6
   30674:	e586a06c 	str	sl, [r6, #108]	; 0x6c
   30678:	e8bd8ff8 	pop	{r3, r4, r5, r6, r7, r8, r9, sl, fp, pc}
   3067c:	00030f10 	.word	0x00030f10

00030680 <__init_tls>:
   30680:	e92d41f0 	push	{r4, r5, r6, r7, r8, lr}
   30684:	e3a02000 	mov	r2, #0, 0
   30688:	e590600c 	ldr	r6, [r0, #12]
   3068c:	e590c014 	ldr	ip, [r0, #20]
   30690:	e59f7168 	ldr	r7, [pc, #360]	; 30800 <__init_tls+0x180>
   30694:	e59f5168 	ldr	r5, [pc, #360]	; 30804 <__init_tls+0x184>
   30698:	e59f4168 	ldr	r4, [pc, #360]	; 30808 <__init_tls+0x188>
   3069c:	e1a03006 	mov	r3, r6
   306a0:	e1a0e002 	mov	lr, r2
   306a4:	ea000004 	b	306bc <__init_tls+0x3c>
   306a8:	e5932008 	ldr	r2, [r3, #8]
   306ac:	e0462002 	sub	r2, r6, r2
   306b0:	e5901010 	ldr	r1, [r0, #16]
   306b4:	e24cc001 	sub	ip, ip, #1, 0
   306b8:	e0833001 	add	r3, r3, r1
   306bc:	e35c0000 	cmp	ip, #0, 0
   306c0:	0a000015 	beq	3071c <__init_tls+0x9c>
   306c4:	e5931000 	ldr	r1, [r3]
   306c8:	e3510006 	cmp	r1, #6, 0
   306cc:	0afffff5 	beq	306a8 <__init_tls+0x28>
   306d0:	e3510002 	cmp	r1, #2, 0
   306d4:	1a000003 	bne	306e8 <__init_tls+0x68>
   306d8:	e3540000 	cmp	r4, #0, 0
   306dc:	15932008 	ldrne	r2, [r3, #8]
   306e0:	10442002 	subne	r2, r4, r2
   306e4:	eafffff1 	b	306b0 <__init_tls+0x30>
   306e8:	e3510007 	cmp	r1, #7, 0
   306ec:	01a0e003 	moveq	lr, r3
   306f0:	0affffee 	beq	306b0 <__init_tls+0x30>
   306f4:	e1510007 	cmp	r1, r7
   306f8:	1affffec 	bne	306b0 <__init_tls+0x30>
   306fc:	e5931014 	ldr	r1, [r3, #20]
   30700:	e5958000 	ldr	r8, [r5]
   30704:	e1510008 	cmp	r1, r8
   30708:	9affffe8 	bls	306b0 <__init_tls+0x30>
   3070c:	e3510502 	cmp	r1, #8388608	; 0x800000
   30710:	23a01502 	movcs	r1, #8388608	; 0x800000
   30714:	e5851000 	str	r1, [r5]
   30718:	eaffffe4 	b	306b0 <__init_tls+0x30>
   3071c:	e35e0000 	cmp	lr, #0, 0
   30720:	0a00002e 	beq	307e0 <__init_tls+0x160>
   30724:	e59e1008 	ldr	r1, [lr, #8]
   30728:	e59e3010 	ldr	r3, [lr, #16]
   3072c:	e59f00d8 	ldr	r0, [pc, #216]	; 3080c <__init_tls+0x18c>
   30730:	e59fc0d8 	ldr	ip, [pc, #216]	; 30810 <__init_tls+0x190>
   30734:	e0822001 	add	r2, r2, r1
   30738:	e980000c 	stmib	r0, {r2, r3}
   3073c:	e3a01001 	mov	r1, #1, 0
   30740:	e59e301c 	ldr	r3, [lr, #28]
   30744:	e5803010 	str	r3, [r0, #16]
   30748:	e59ee014 	ldr	lr, [lr, #20]
   3074c:	e58c000c 	str	r0, [ip, #12]
   30750:	e58c1018 	str	r1, [ip, #24]
   30754:	e08e1002 	add	r1, lr, r2
   30758:	e2434001 	sub	r4, r3, #1, 0
   3075c:	e2611000 	rsb	r1, r1, #0, 0
   30760:	e2422008 	sub	r2, r2, #8, 0
   30764:	e3530003 	cmp	r3, #3, 0
   30768:	e0011004 	and	r1, r1, r4
   3076c:	e0022004 	and	r2, r2, r4
   30770:	93a03004 	movls	r3, #4, 0
   30774:	e081100e 	add	r1, r1, lr
   30778:	e2822008 	add	r2, r2, #8, 0
   3077c:	e580100c 	str	r1, [r0, #12]
   30780:	e5802014 	str	r2, [r0, #20]
   30784:	95803010 	strls	r3, [r0, #16]
   30788:	8283007b 	addhi	r0, r3, #123, 0	; 0x7b
   3078c:	93a0007f 	movls	r0, #127, 0	; 0x7f
   30790:	e0811002 	add	r1, r1, r2
   30794:	e0811000 	add	r1, r1, r0
   30798:	e3c11003 	bic	r1, r1, #3, 0
   3079c:	e35100b4 	cmp	r1, #180, 0	; 0xb4
   307a0:	e58c3014 	str	r3, [ip, #20]
   307a4:	e58c1010 	str	r1, [ip, #16]
   307a8:	9a000012 	bls	307f8 <__init_tls+0x178>
   307ac:	e3a00000 	mov	r0, #0, 0
   307b0:	e3a070c0 	mov	r7, #192, 0	; 0xc0
   307b4:	e3a02003 	mov	r2, #3, 0
   307b8:	e3a03022 	mov	r3, #34, 0	; 0x22
   307bc:	e3e04000 	mvn	r4, #0, 0
   307c0:	e1a05000 	mov	r5, r0
   307c4:	ef000000 	svc	0x00000000
   307c8:	ebffff8a 	bl	305f8 <__copy_tls>
   307cc:	ebffff68 	bl	30574 <__init_tp>
   307d0:	e3700001 	cmn	r0, #1, 0
   307d4:	18bd81f0 	popne	{r4, r5, r6, r7, r8, pc}
   307d8:	e7f000f0 	.word	0xe7f000f0
   307dc:	e8bd81f0 	pop	{r4, r5, r6, r7, r8, pc}
   307e0:	e59f0024 	ldr	r0, [pc, #36]	; 3080c <__init_tls+0x18c>
   307e4:	e59fc024 	ldr	ip, [pc, #36]	; 30810 <__init_tls+0x190>
   307e8:	e590e00c 	ldr	lr, [r0, #12]
   307ec:	e5902004 	ldr	r2, [r0, #4]
   307f0:	e5903010 	ldr	r3, [r0, #16]
   307f4:	eaffffd6 	b	30754 <__init_tls+0xd4>
   307f8:	e59f0014 	ldr	r0, [pc, #20]	; 30814 <__init_tls+0x194>
   307fc:	eafffff1 	b	307c8 <__init_tls+0x148>
   30800:	6474e551 	.word	0x6474e551
   30804:	00030ed8 	.word	0x00030ed8
   30808:	00000000 	.word	0x00000000
   3080c:	00030f4c 	.word	0x00030f4c
   30810:	00030f10 	.word	0x00030f10
   30814:	00030f64 	.word	0x00030f64

00030818 <_Exit>:
   30818:	e52d7004 	push	{r7}		; (str r7, [sp, #-4]!)
   3081c:	e1a03000 	mov	r3, r0
   30820:	e3a070f8 	mov	r7, #248, 0	; 0xf8
   30824:	ef000000 	svc	0x00000000
   30828:	e3a07001 	mov	r7, #1, 0
   3082c:	e1a00003 	mov	r0, r3
   30830:	ef000000 	svc	0x00000000
   30834:	eafffffb 	b	30828 <_Exit+0x10>

00030838 <__syscall_ret>:
   30838:	e3700a01 	cmn	r0, #4096	; 0x1000
   3083c:	e92d4010 	push	{r4, lr}
   30840:	e1a04000 	mov	r4, r0
   30844:	98bd8010 	popls	{r4, pc}
   30848:	eb00013e 	bl	30d48 <__errno_location>
   3084c:	e2644000 	rsb	r4, r4, #0, 0
   30850:	e1a03000 	mov	r3, r0
   30854:	e5834000 	str	r4, [r3]
   30858:	e3e00000 	mvn	r0, #0, 0
   3085c:	e8bd8010 	pop	{r4, pc}

00030860 <memcpy>:
   30860:	e92d4011 	push	{r0, r4, lr}
   30864:	e24dd01c 	sub	sp, sp, #28, 0
   30868:	e3520004 	cmp	r2, #4, 0
   3086c:	3a0000b2 	bcc	30b3c <copy_last_3_and_return>
   30870:	e2613000 	rsb	r3, r1, #0, 0
   30874:	e2133003 	ands	r3, r3, #3, 0
   30878:	0a000007 	beq	3089c <src_aligned>
   3087c:	e1b0cf83 	lsls	ip, r3, #31
   30880:	e0422003 	sub	r2, r2, r3
   30884:	44d13001 	ldrbmi	r3, [r1], #1
   30888:	24d14001 	ldrbcs	r4, [r1], #1
   3088c:	24d1c001 	ldrbcs	ip, [r1], #1
   30890:	44c03001 	strbmi	r3, [r0], #1
   30894:	24c04001 	strbcs	r4, [r0], #1
   30898:	24c0c001 	strbcs	ip, [r0], #1

0003089c <src_aligned>:
   3089c:	e020c001 	eor	ip, r0, r1
   308a0:	e31c0003 	tst	ip, #3, 0
   308a4:	1a000027 	bne	30948 <non_congruent>
   308a8:	e88d0fe0 	stm	sp, {r5, r6, r7, r8, r9, sl, fp}
   308ac:	e2603000 	rsb	r3, r0, #0, 0
   308b0:	e213301c 	ands	r3, r3, #28, 0
   308b4:	0a00000a 	beq	308e4 <cached_aligned32>
   308b8:	e1530002 	cmp	r3, r2
   308bc:	8202301c 	andhi	r3, r2, #28, 0
   308c0:	e1b0ce03 	lsls	ip, r3, #28
   308c4:	28b100f0 	ldmcs	r1!, {r4, r5, r6, r7}
   308c8:	48b10300 	ldmmi	r1!, {r8, r9}
   308cc:	28a000f0 	stmiacs	r0!, {r4, r5, r6, r7}
   308d0:	48a00300 	stmiami	r0!, {r8, r9}
   308d4:	e3130004 	tst	r3, #4, 0
   308d8:	1491a004 	ldrne	sl, [r1], #4
   308dc:	1480a004 	strne	sl, [r0], #4
   308e0:	e0422003 	sub	r2, r2, r3

000308e4 <cached_aligned32>:
   308e4:	e2522020 	subs	r2, r2, #32, 0
   308e8:	3a000004 	bcc	30900 <less_than_32_left>
   308ec:	e8b10ff0 	ldm	r1!, {r4, r5, r6, r7, r8, r9, sl, fp}
   308f0:	e2522020 	subs	r2, r2, #32, 0
   308f4:	e8a00ff0 	stmia	r0!, {r4, r5, r6, r7, r8, r9, sl, fp}
   308f8:	2afffffb 	bcs	308ec <cached_aligned32+0x8>
   308fc:	e2822020 	add	r2, r2, #32, 0

00030900 <less_than_32_left>:
   30900:	e312001f 	tst	r2, #31, 0
   30904:	0a00000c 	beq	3093c <less_than_32_left+0x3c>
   30908:	e1b0ce02 	lsls	ip, r2, #28
   3090c:	28b100f0 	ldmcs	r1!, {r4, r5, r6, r7}
   30910:	48b10300 	ldmmi	r1!, {r8, r9}
   30914:	28a000f0 	stmiacs	r0!, {r4, r5, r6, r7}
   30918:	48a00300 	stmiami	r0!, {r8, r9}
   3091c:	e1b0cf02 	lsls	ip, r2, #30
   30920:	24913004 	ldrcs	r3, [r1], #4
   30924:	40d140b2 	ldrhmi	r4, [r1], #2
   30928:	24803004 	strcs	r3, [r0], #4
   3092c:	40c040b2 	strhmi	r4, [r0], #2
   30930:	e3120001 	tst	r2, #1, 0
   30934:	15d13000 	ldrbne	r3, [r1]
   30938:	15c03000 	strbne	r3, [r0]
   3093c:	e8bd0fe0 	pop	{r5, r6, r7, r8, r9, sl, fp}
   30940:	e8bd4011 	pop	{r0, r4, lr}
   30944:	e12fff1e 	bx	lr

00030948 <non_congruent>:
   30948:	e3520004 	cmp	r2, #4, 0
   3094c:	3a00007a 	bcc	30b3c <copy_last_3_and_return>
   30950:	e88d0fe0 	stm	sp, {r5, r6, r7, r8, r9, sl, fp}
   30954:	e2605000 	rsb	r5, r0, #0, 0
   30958:	e2055003 	and	r5, r5, #3, 0
   3095c:	e1a0c185 	lsl	ip, r5, #3
   30960:	e26ce020 	rsb	lr, ip, #32, 0
   30964:	e4913004 	ldr	r3, [r1], #4
   30968:	e2422004 	sub	r2, r2, #4, 0
   3096c:	e1b05f85 	lsls	r5, r5, #31
   30970:	44c03001 	strbmi	r3, [r0], #1
   30974:	41a03423 	lsrmi	r3, r3, #8
   30978:	24c03001 	strbcs	r3, [r0], #1
   3097c:	21a03423 	lsrcs	r3, r3, #8
   30980:	24c03001 	strbcs	r3, [r0], #1
   30984:	21a03423 	lsrcs	r3, r3, #8
   30988:	e3520004 	cmp	r2, #4, 0
   3098c:	3a000063 	bcc	30b20 <partial_word_tail>
   30990:	e310001c 	tst	r0, #28, 0
   30994:	0a000008 	beq	309bc <non_congruent+0x74>
   30998:	e4915004 	ldr	r5, [r1], #4
   3099c:	e2422004 	sub	r2, r2, #4, 0
   309a0:	e1a04e15 	lsl	r4, r5, lr
   309a4:	e1844003 	orr	r4, r4, r3
   309a8:	e1a03c35 	lsr	r3, r5, ip
   309ac:	e4804004 	str	r4, [r0], #4
   309b0:	e3520004 	cmp	r2, #4, 0
   309b4:	2afffff5 	bcs	30990 <non_congruent+0x48>
   309b8:	3a000058 	bcc	30b20 <partial_word_tail>
   309bc:	e2522020 	subs	r2, r2, #32, 0
   309c0:	3a00004a 	bcc	30af0 <less_than_thirtytwo>
   309c4:	e35c0018 	cmp	ip, #24, 0
   309c8:	0a000031 	beq	30a94 <loop24>
   309cc:	e35c0008 	cmp	ip, #8, 0
   309d0:	0a000017 	beq	30a34 <loop8>

000309d4 <loop16>:
   309d4:	e491c004 	ldr	ip, [r1], #4
   309d8:	e1a0400c 	mov	r4, ip
   309dc:	e8b10fe0 	ldm	r1!, {r5, r6, r7, r8, r9, sl, fp}
   309e0:	e2522020 	subs	r2, r2, #32, 0
   309e4:	2491c004 	ldrcs	ip, [r1], #4
   309e8:	e1833804 	orr	r3, r3, r4, lsl #16
   309ec:	e1a04824 	lsr	r4, r4, #16
   309f0:	e1844805 	orr	r4, r4, r5, lsl #16
   309f4:	e1a05825 	lsr	r5, r5, #16
   309f8:	e1855806 	orr	r5, r5, r6, lsl #16
   309fc:	e1a06826 	lsr	r6, r6, #16
   30a00:	e1866807 	orr	r6, r6, r7, lsl #16
   30a04:	e1a07827 	lsr	r7, r7, #16
   30a08:	e1877808 	orr	r7, r7, r8, lsl #16
   30a0c:	e1a08828 	lsr	r8, r8, #16
   30a10:	e1888809 	orr	r8, r8, r9, lsl #16
   30a14:	e1a09829 	lsr	r9, r9, #16
   30a18:	e189980a 	orr	r9, r9, sl, lsl #16
   30a1c:	e1a0a82a 	lsr	sl, sl, #16
   30a20:	e18aa80b 	orr	sl, sl, fp, lsl #16
   30a24:	e8a007f8 	stmia	r0!, {r3, r4, r5, r6, r7, r8, r9, sl}
   30a28:	e1a0382b 	lsr	r3, fp, #16
   30a2c:	2affffe9 	bcs	309d8 <loop16+0x4>
   30a30:	ea00002e 	b	30af0 <less_than_thirtytwo>

00030a34 <loop8>:
   30a34:	e491c004 	ldr	ip, [r1], #4
   30a38:	e1a0400c 	mov	r4, ip
   30a3c:	e8b10fe0 	ldm	r1!, {r5, r6, r7, r8, r9, sl, fp}
   30a40:	e2522020 	subs	r2, r2, #32, 0
   30a44:	2491c004 	ldrcs	ip, [r1], #4
   30a48:	e1833c04 	orr	r3, r3, r4, lsl #24
   30a4c:	e1a04424 	lsr	r4, r4, #8
   30a50:	e1844c05 	orr	r4, r4, r5, lsl #24
   30a54:	e1a05425 	lsr	r5, r5, #8
   30a58:	e1855c06 	orr	r5, r5, r6, lsl #24
   30a5c:	e1a06426 	lsr	r6, r6, #8
   30a60:	e1866c07 	orr	r6, r6, r7, lsl #24
   30a64:	e1a07427 	lsr	r7, r7, #8
   30a68:	e1877c08 	orr	r7, r7, r8, lsl #24
   30a6c:	e1a08428 	lsr	r8, r8, #8
   30a70:	e1888c09 	orr	r8, r8, r9, lsl #24
   30a74:	e1a09429 	lsr	r9, r9, #8
   30a78:	e1899c0a 	orr	r9, r9, sl, lsl #24
   30a7c:	e1a0a42a 	lsr	sl, sl, #8
   30a80:	e18aac0b 	orr	sl, sl, fp, lsl #24
   30a84:	e8a007f8 	stmia	r0!, {r3, r4, r5, r6, r7, r8, r9, sl}
   30a88:	e1a0342b 	lsr	r3, fp, #8
   30a8c:	2affffe9 	bcs	30a38 <loop8+0x4>
   30a90:	ea000016 	b	30af0 <less_than_thirtytwo>

00030a94 <loop24>:
   30a94:	e491c004 	ldr	ip, [r1], #4
   30a98:	e1a0400c 	mov	r4, ip
   30a9c:	e8b10fe0 	ldm	r1!, {r5, r6, r7, r8, r9, sl, fp}
   30aa0:	e2522020 	subs	r2, r2, #32, 0
   30aa4:	2491c004 	ldrcs	ip, [r1], #4
   30aa8:	e1833404 	orr	r3, r3, r4, lsl #8
   30aac:	e1a04c24 	lsr	r4, r4, #24
   30ab0:	e1844405 	orr	r4, r4, r5, lsl #8
   30ab4:	e1a05c25 	lsr	r5, r5, #24
   30ab8:	e1855406 	orr	r5, r5, r6, lsl #8
   30abc:	e1a06c26 	lsr	r6, r6, #24
   30ac0:	e1866407 	orr	r6, r6, r7, lsl #8
   30ac4:	e1a07c27 	lsr	r7, r7, #24
   30ac8:	e1877408 	orr	r7, r7, r8, lsl #8
   30acc:	e1a08c28 	lsr	r8, r8, #24
   30ad0:	e1888409 	orr	r8, r8, r9, lsl #8
   30ad4:	e1a09c29 	lsr	r9, r9, #24
   30ad8:	e189940a 	orr	r9, r9, sl, lsl #8
   30adc:	e1a0ac2a 	lsr	sl, sl, #24
   30ae0:	e18aa40b 	orr	sl, sl, fp, lsl #8
   30ae4:	e8a007f8 	stmia	r0!, {r3, r4, r5, r6, r7, r8, r9, sl}
   30ae8:	e1a03c2b 	lsr	r3, fp, #24
   30aec:	2affffe9 	bcs	30a98 <loop24+0x4>

00030af0 <less_than_thirtytwo>:
   30af0:	e26ec020 	rsb	ip, lr, #32, 0
   30af4:	e2822020 	add	r2, r2, #32, 0
   30af8:	e3520004 	cmp	r2, #4, 0
   30afc:	3a000007 	bcc	30b20 <partial_word_tail>
   30b00:	e4915004 	ldr	r5, [r1], #4
   30b04:	e2422004 	sub	r2, r2, #4, 0
   30b08:	e1a04e15 	lsl	r4, r5, lr
   30b0c:	e1844003 	orr	r4, r4, r3
   30b10:	e1a03c35 	lsr	r3, r5, ip
   30b14:	e4804004 	str	r4, [r0], #4
   30b18:	e3520004 	cmp	r2, #4, 0
   30b1c:	2afffff7 	bcs	30b00 <less_than_thirtytwo+0x10>

00030b20 <partial_word_tail>:
   30b20:	e1b05e0e 	lsls	r5, lr, #28
   30b24:	44c03001 	strbmi	r3, [r0], #1
   30b28:	41a03423 	lsrmi	r3, r3, #8
   30b2c:	24c03001 	strbcs	r3, [r0], #1
   30b30:	21a03423 	lsrcs	r3, r3, #8
   30b34:	24c03001 	strbcs	r3, [r0], #1
   30b38:	e89d0fe0 	ldm	sp, {r5, r6, r7, r8, r9, sl, fp}

00030b3c <copy_last_3_and_return>:
   30b3c:	e1b02f82 	lsls	r2, r2, #31
   30b40:	44d12001 	ldrbmi	r2, [r1], #1
   30b44:	24d13001 	ldrbcs	r3, [r1], #1
   30b48:	25d1c000 	ldrbcs	ip, [r1]
   30b4c:	44c02001 	strbmi	r2, [r0], #1
   30b50:	24c03001 	strbcs	r3, [r0], #1
   30b54:	25c0c000 	strbcs	ip, [r0]
   30b58:	e28dd01c 	add	sp, sp, #28, 0
   30b5c:	e8bd4011 	pop	{r0, r4, lr}
   30b60:	e12fff1e 	bx	lr

00030b64 <__syscall_cp_c>:
   30b64:	e92d00b0 	push	{r4, r5, r7}
   30b68:	e1a07000 	mov	r7, r0
   30b6c:	e1a00001 	mov	r0, r1
   30b70:	e1a01002 	mov	r1, r2
   30b74:	e1a02003 	mov	r2, r3
   30b78:	e28d300c 	add	r3, sp, #12, 0
   30b7c:	e8930038 	ldm	r3, {r3, r4, r5}
   30b80:	ef000000 	svc	0x00000000
   30b84:	e8bd00b0 	pop	{r4, r5, r7}
   30b88:	e12fff1e 	bx	lr

00030b8c <__syscall_cp>:
   30b8c:	eafffff4 	b	30b64 <__syscall_cp_c>

00030b90 <__set_thread_area>:
   30b90:	e59f30dc 	ldr	r3, [pc, #220]	; 30c74 <__set_thread_area+0xe4>
   30b94:	e92d4080 	push	{r7, lr}
   30b98:	e5933000 	ldr	r3, [r3]
   30b9c:	e3130902 	tst	r3, #32768	; 0x8000
   30ba0:	0a00001d 	beq	30c1c <__set_thread_area+0x8c>
   30ba4:	e59f20cc 	ldr	r2, [pc, #204]	; 30c78 <__set_thread_area+0xe8>
   30ba8:	e59fc0cc 	ldr	ip, [pc, #204]	; 30c7c <__set_thread_area+0xec>
   30bac:	e59f30cc 	ldr	r3, [pc, #204]	; 30c80 <__set_thread_area+0xf0>
   30bb0:	e59f10cc 	ldr	r1, [pc, #204]	; 30c84 <__set_thread_area+0xf4>
   30bb4:	e5922008 	ldr	r2, [r2, #8]
   30bb8:	e58c3000 	str	r3, [ip]
   30bbc:	e59f30c4 	ldr	r3, [pc, #196]	; 30c88 <__set_thread_area+0xf8>
   30bc0:	e5813000 	str	r3, [r1]
   30bc4:	e5923000 	ldr	r3, [r2]
   30bc8:	e3530000 	cmp	r3, #0, 0
   30bcc:	0a000025 	beq	30c68 <__set_thread_area+0xd8>
   30bd0:	e353000f 	cmp	r3, #15, 0
   30bd4:	1a00000e 	bne	30c14 <__set_thread_area+0x84>
   30bd8:	e5923004 	ldr	r3, [r2, #4]
   30bdc:	e5d32000 	ldrb	r2, [r3]
   30be0:	e3520076 	cmp	r2, #118, 0	; 0x76
   30be4:	1a00001f 	bne	30c68 <__set_thread_area+0xd8>
   30be8:	e5d32001 	ldrb	r2, [r3, #1]
   30bec:	e3520036 	cmp	r2, #54, 0	; 0x36
   30bf0:	1a00001c 	bne	30c68 <__set_thread_area+0xd8>
   30bf4:	e5d33002 	ldrb	r3, [r3, #2]
   30bf8:	e2433030 	sub	r3, r3, #48, 0	; 0x30
   30bfc:	e3530009 	cmp	r3, #9, 0
   30c00:	859f2084 	ldrhi	r2, [pc, #132]	; 30c8c <__set_thread_area+0xfc>
   30c04:	859f3084 	ldrhi	r3, [pc, #132]	; 30c90 <__set_thread_area+0x100>
   30c08:	858c2000 	strhi	r2, [ip]
   30c0c:	85813000 	strhi	r3, [r1]
   30c10:	ea000014 	b	30c68 <__set_thread_area+0xd8>
   30c14:	e2822008 	add	r2, r2, #8, 0
   30c18:	eaffffe9 	b	30bc4 <__set_thread_area+0x34>
   30c1c:	e59fc070 	ldr	ip, [pc, #112]	; 30c94 <__set_thread_area+0x104>
   30c20:	e3e03a0f 	mvn	r3, #61440	; 0xf000
   30c24:	e5133003 	ldr	r3, [r3, #-3]
   30c28:	e59f204c 	ldr	r2, [pc, #76]	; 30c7c <__set_thread_area+0xec>
   30c2c:	e59fe064 	ldr	lr, [pc, #100]	; 30c98 <__set_thread_area+0x108>
   30c30:	e59f104c 	ldr	r1, [pc, #76]	; 30c84 <__set_thread_area+0xf4>
   30c34:	e58ce000 	str	lr, [ip]
   30c38:	e59fc05c 	ldr	ip, [pc, #92]	; 30c9c <__set_thread_area+0x10c>
   30c3c:	e582c000 	str	ip, [r2]
   30c40:	e3530001 	cmp	r3, #1, 0
   30c44:	e59f2054 	ldr	r2, [pc, #84]	; 30ca0 <__set_thread_area+0x110>
   30c48:	e5812000 	str	r2, [r1]
   30c4c:	da000002 	ble	30c5c <__set_thread_area+0xcc>
   30c50:	e3530002 	cmp	r3, #2, 0
   30c54:	1a000003 	bne	30c68 <__set_thread_area+0xd8>
   30c58:	ea000000 	b	30c60 <__set_thread_area+0xd0>
   30c5c:	e7f000f0 	.word	0xe7f000f0
   30c60:	e59f303c 	ldr	r3, [pc, #60]	; 30ca4 <__set_thread_area+0x114>
   30c64:	e5813000 	str	r3, [r1]
   30c68:	e59f7038 	ldr	r7, [pc, #56]	; 30ca8 <__set_thread_area+0x118>
   30c6c:	ef000000 	svc	0x00000000
   30c70:	e8bd8080 	pop	{r7, pc}
   30c74:	00030f0c 	.word	0x00030f0c
   30c78:	00030f10 	.word	0x00030f10
   30c7c:	00030ecc 	.word	0x00030ecc
   30c80:	00030d18 	.word	0x00030d18
   30c84:	00030ec8 	.word	0x00030ec8
   30c88:	00030cd8 	.word	0x00030cd8
   30c8c:	00030cf4 	.word	0x00030cf4
   30c90:	00030cd0 	.word	0x00030cd0
   30c94:	00030ed0 	.word	0x00030ed0
   30c98:	ffff0fe0 	.word	0xffff0fe0
   30c9c:	ffff0fc0 	.word	0xffff0fc0
   30ca0:	ffff0fa0 	.word	0xffff0fa0
   30ca4:	00030cb0 	.word	0x00030cb0
   30ca8:	000f0005 	.word	0x000f0005

00030cac <__a_barrier_dummy>:
   30cac:	e12fff1e 	bx	lr

00030cb0 <__a_barrier_oldkuser>:
   30cb0:	e92d500f 	push	{r0, r1, r2, r3, ip, lr}
   30cb4:	e1a01000 	mov	r1, r0
   30cb8:	e1a0200d 	mov	r2, sp
   30cbc:	e59fc080 	ldr	ip, [pc, #128]	; 30d44 <__a_gettp_cp15+0x8>
   30cc0:	eb000001 	bl	30ccc <__a_barrier_oldkuser+0x1c>
   30cc4:	e8bd500f 	pop	{r0, r1, r2, r3, ip, lr}
   30cc8:	e12fff1e 	bx	lr
   30ccc:	e12fff1c 	bx	ip

00030cd0 <__a_barrier_v6>:
   30cd0:	ee070fba 	mcr	15, 0, r0, cr7, cr10, {5}
   30cd4:	e12fff1e 	bx	lr

00030cd8 <__a_barrier_v7>:
   30cd8:	f57ff05b 	dmb	ish
   30cdc:	e12fff1e 	bx	lr

00030ce0 <__a_cas_dummy>:
   30ce0:	e1a03000 	mov	r3, r0
   30ce4:	e5920000 	ldr	r0, [r2]
   30ce8:	e0530000 	subs	r0, r3, r0
   30cec:	05821000 	streq	r1, [r2]
   30cf0:	e12fff1e 	bx	lr

00030cf4 <__a_cas_v6>:
   30cf4:	e1a03000 	mov	r3, r0
   30cf8:	ee070fba 	mcr	15, 0, r0, cr7, cr10, {5}
   30cfc:	e1920f9f 	ldrex	r0, [r2]
   30d00:	e0530000 	subs	r0, r3, r0
   30d04:	01820f91 	strexeq	r0, r1, [r2]
   30d08:	03300001 	teqeq	r0, #1, 0
   30d0c:	0afffffa 	beq	30cfc <__a_cas_v6+0x8>
   30d10:	ee070fba 	mcr	15, 0, r0, cr7, cr10, {5}
   30d14:	e12fff1e 	bx	lr

00030d18 <__a_cas_v7>:
   30d18:	e1a03000 	mov	r3, r0
   30d1c:	f57ff05b 	dmb	ish
   30d20:	e1920f9f 	ldrex	r0, [r2]
   30d24:	e0530000 	subs	r0, r3, r0
   30d28:	01820f91 	strexeq	r0, r1, [r2]
   30d2c:	03300001 	teqeq	r0, #1, 0
   30d30:	0afffffa 	beq	30d20 <__a_cas_v7+0x8>
   30d34:	f57ff05b 	dmb	ish
   30d38:	e12fff1e 	bx	lr

00030d3c <__a_gettp_cp15>:
   30d3c:	ee1d0f70 	mrc	15, 0, r0, cr13, cr0, {3}
   30d40:	e12fff1e 	bx	lr
   30d44:	ffff0fc0 	.word	0xffff0fc0

00030d48 <__errno_location>:
   30d48:	e59f3010 	ldr	r3, [pc, #16]	; 30d60 <__errno_location+0x18>
   30d4c:	e52de004 	push	{lr}		; (str lr, [sp, #-4]!)
   30d50:	e5930000 	ldr	r0, [r3]
   30d54:	e12fff30 	blx	r0
   30d58:	e240005c 	sub	r0, r0, #92, 0	; 0x5c
   30d5c:	e49df004 	pop	{pc}		; (ldr pc, [sp], #4)
   30d60:	00030ed0 	.word	0x00030ed0

Disassembly of section .init:

00030d64 <_init>:
   30d64:	e92d4001 	push	{r0, lr}
   30d68:	e8bd4001 	pop	{r0, lr}
   30d6c:	e12fff1e 	bx	lr

Disassembly of section .fini:

00030d70 <_fini>:
   30d70:	e92d4001 	push	{r0, lr}
   30d74:	e8bd4001 	pop	{r0, lr}
   30d78:	e12fff1e 	bx	lr
